; Function Attrs: mustprogress nofree norecurse nosync nounwind willreturn memory(argmem: readwrite) uwtable
define hidden void @_ZN19OpenColorIO_v2_4dev9CDLOpData6invertEv(ptr nocapture noundef nonnull align 8 dereferenceable(256) %this) local_unnamed_addr #9 align 2 {
entry:
  %m_style = getelementptr inbounds i8, ptr %this, i64 168
  %0 = load i32, ptr %m_style, align 8
  %1 = icmp ult i32 %0, 4
  br i1 %1, label %switch.lookup, label %sw.epilog

switch.lookup:                                    ; preds = %entry
  %2 = zext nneg i32 %0 to i64
  %switch.gep = getelementptr inbounds [4 x i32], ptr @switch.table._ZNK19OpenColorIO_v2_4dev9CDLOpData7inverseEv, i64 0, i64 %2
  %switch.load = load i32, ptr %switch.gep, align 4
  store i32 %switch.load, ptr %m_style, align 8
  br label %sw.epilog

sw.epilog:                                        ; preds = %entry, %switch.lookup
  ret void
}